; Function Attrs: mustprogress uwtable
define dso_local noundef range(i32 -11, 1) i32 @hs_compile_multi(ptr noundef %0, ptr noundef %1, ptr noundef %2, i32 noundef %3, i32 noundef %4, ptr noundef %5, ptr noundef %6, ptr noundef %7) local_unnamed_addr #0 personality ptr @__gxx_personality_v0 {
  %9 = alloca %"struct.ue2::Grey", align 8
  call void @llvm.lifetime.start.p0(i64 296, ptr nonnull %9) #15
  call void @_ZN3ue24GreyC1Ev(ptr noundef nonnull align 8 dereferenceable(292) %9)
  %10 = invoke noundef i32 @_ZN3ue220hs_compile_multi_intEPKPKcPKjS5_PKPK11hs_expr_extjjPK16hs_platform_infoPP11hs_databasePP16hs_compile_errorRKNS_4GreyE(ptr noundef %0, ptr noundef %1, ptr noundef %2, ptr noundef null, i32 noundef %3, i32 noundef %4, ptr noundef %5, ptr noundef %6, ptr noundef %7, ptr noundef nonnull align 8 dereferenceable(292) %9)
          to label %11 unwind label %19

11:                                               ; preds = %8
  %12 = getelementptr inbounds nuw i8, ptr %9, i64 192
  %13 = load ptr, ptr %12, align 8
  %14 = getelementptr inbounds nuw i8, ptr %9, i64 208
  %15 = icmp eq ptr %13, %14
  br i1 %15, label %_ZNKSt7__cxx1112basic_stringIcSt11char_traitsIcESaIcEE11_M_is_localEv.exit.thread.i.i.i, label %_ZNKSt7__cxx1112basic_stringIcSt11char_traitsIcESaIcEE11_M_is_localEv.exit.i.i.i

_ZNKSt7__cxx1112basic_stringIcSt11char_traitsIcESaIcEE11_M_is_localEv.exit.thread.i.i.i: ; preds = %11
  %16 = getelementptr inbounds nuw i8, ptr %9, i64 200
  %17 = load i64, ptr %16, align 8
  %18 = icmp ult i64 %17, 16
  call void @llvm.assume(i1 %18)
  br label %_ZN3ue24GreyD2Ev.exit

_ZNKSt7__cxx1112basic_stringIcSt11char_traitsIcESaIcEE11_M_is_localEv.exit.i.i.i: ; preds = %11
  call void @_ZdlPv(ptr noundef %13) #16
  br label %_ZN3ue24GreyD2Ev.exit

_ZN3ue24GreyD2Ev.exit:                            ; preds = %_ZNKSt7__cxx1112basic_stringIcSt11char_traitsIcESaIcEE11_M_is_localEv.exit.thread.i.i.i, %_ZNKSt7__cxx1112basic_stringIcSt11char_traitsIcESaIcEE11_M_is_localEv.exit.i.i.i
  call void @llvm.lifetime.end.p0(i64 296, ptr nonnull %9) #15
  ret i32 %10

19:                                               ; preds = %8
  %20 = landingpad { ptr, i32 }
          cleanup
  %21 = getelementptr inbounds nuw i8, ptr %9, i64 192
  %22 = load ptr, ptr %21, align 8
  %23 = getelementptr inbounds nuw i8, ptr %9, i64 208
  %24 = icmp eq ptr %22, %23
  br i1 %24, label %_ZNKSt7__cxx1112basic_stringIcSt11char_traitsIcESaIcEE11_M_is_localEv.exit.thread.i.i.i11, label %_ZNKSt7__cxx1112basic_stringIcSt11char_traitsIcESaIcEE11_M_is_localEv.exit.i.i.i10

_ZNKSt7__cxx1112basic_stringIcSt11char_traitsIcESaIcEE11_M_is_localEv.exit.thread.i.i.i11: ; preds = %19
  %25 = getelementptr inbounds nuw i8, ptr %9, i64 200
  %26 = load i64, ptr %25, align 8
  %27 = icmp ult i64 %26, 16
  call void @llvm.assume(i1 %27)
  br label %_ZN3ue24GreyD2Ev.exit12

_ZNKSt7__cxx1112basic_stringIcSt11char_traitsIcESaIcEE11_M_is_localEv.exit.i.i.i10: ; preds = %19
  call void @_ZdlPv(ptr noundef %22) #16
  br label %_ZN3ue24GreyD2Ev.exit12

_ZN3ue24GreyD2Ev.exit12:                          ; preds = %_ZNKSt7__cxx1112basic_stringIcSt11char_traitsIcESaIcEE11_M_is_localEv.exit.thread.i.i.i11, %_ZNKSt7__cxx1112basic_stringIcSt11char_traitsIcESaIcEE11_M_is_localEv.exit.i.i.i10
  call void @llvm.lifetime.end.p0(i64 296, ptr nonnull %9) #15
  resume { ptr, i32 } %20
}